target datalayout = "e-m:e-p270:32:32-p271:32:32-p272:64:64-i64:64-i128:128-f80:128-n8:16:32:64-S128"
target triple = "x86_64-pc-linux-gnu"

@.str.3 = private unnamed_addr constant [3 x i8] c"rb\00", align 1
@.str.4 = private unnamed_addr constant [13 x i8] c"%s%08x%08x%s\00", align 1
@.str.5 = private unnamed_addr constant [1 x i8] zeroinitializer, align 1
@.str.6 = private unnamed_addr constant [9 x i8] c".psa_its\00", align 1

; Function Attrs: nounwind uwtable
define internal void @psa_its_fill_filename(i64 noundef %0, ptr noundef %1) #0 {
  %3 = alloca i64, align 8
  %4 = alloca ptr, align 8
  store i64 %0, ptr %3, align 8, !tbaa !3
  store ptr %1, ptr %4, align 8, !tbaa !23
  %5 = load ptr, ptr %4, align 8, !tbaa !23
  %6 = load i64, ptr %3, align 8, !tbaa !3
  %7 = lshr i64 %6, 32
  %8 = trunc i64 %7 to i32
  %9 = load i64, ptr %3, align 8, !tbaa !3
  %10 = and i64 %9, 4294967295
  %11 = trunc i64 %10 to i32
  %12 = call i32 (ptr, i64, ptr, ...) @snprintf(ptr noundef %5, i64 noundef 25, ptr noundef @.str.4, ptr noundef @.str.5, i32 noundef %8, i32 noundef %11, ptr noundef @.str.6) #7
  ret void
}

; Function Attrs: nounwind uwtable
define hidden i32 @psa_its_remove(i64 noundef %0) #0 {
  %2 = alloca i32, align 4
  %3 = alloca i64, align 8
  %4 = alloca [25 x i8], align 16
  %5 = alloca ptr, align 8
  %6 = alloca i32, align 4
  store i64 %0, ptr %3, align 8, !tbaa !3
  call void @llvm.lifetime.start.p0(i64 25, ptr %4) #7
  call void @llvm.lifetime.start.p0(i64 8, ptr %5) #7
  %7 = load i64, ptr %3, align 8, !tbaa !3
  %8 = getelementptr inbounds [25 x i8], ptr %4, i64 0, i64 0
  call void @psa_its_fill_filename(i64 noundef %7, ptr noundef %8)
  %9 = getelementptr inbounds [25 x i8], ptr %4, i64 0, i64 0
  %10 = call noalias ptr @fopen(ptr noundef %9, ptr noundef @.str.3)
  store ptr %10, ptr %5, align 8, !tbaa !10
  %11 = load ptr, ptr %5, align 8, !tbaa !10
  %12 = icmp eq ptr %11, null
  br i1 %12, label %13, label %14

13:                                               ; preds = %1
  store i32 -140, ptr %2, align 4
  store i32 1, ptr %6, align 4
  br label %22

14:                                               ; preds = %1
  %15 = load ptr, ptr %5, align 8, !tbaa !10
  %16 = call i32 @fclose(ptr noundef %15)
  %17 = getelementptr inbounds [25 x i8], ptr %4, i64 0, i64 0
  %18 = call i32 @remove(ptr noundef %17) #7
  %19 = icmp ne i32 %18, 0
  br i1 %19, label %20, label %21

20:                                               ; preds = %14
  store i32 -146, ptr %2, align 4
  store i32 1, ptr %6, align 4
  br label %22

21:                                               ; preds = %14
  store i32 0, ptr %2, align 4
  store i32 1, ptr %6, align 4
  br label %22

22:                                               ; preds = %21, %20, %13
  call void @llvm.lifetime.end.p0(i64 8, ptr %5) #7
  call void @llvm.lifetime.end.p0(i64 25, ptr %4) #7
  %23 = load i32, ptr %2, align 4
  ret i32 %23
}