; Function Attrs: nofree nounwind uwtable
define hidden range(i32 -146, 1) i32 @psa_its_remove(i64 noundef %0) local_unnamed_addr #0 {
  %2 = alloca [25 x i8], align 16
  call void @llvm.lifetime.start.p0(i64 25, ptr nonnull %2) #4
  %3 = lshr i64 %0, 32
  %4 = trunc nuw i64 %3 to i32
  %5 = trunc i64 %0 to i32
  %6 = call i32 (ptr, i64, ptr, ...) @snprintf(ptr noundef nonnull dereferenceable(1) %2, i64 noundef 25, ptr noundef nonnull @.str.4, ptr noundef nonnull @.str.5, i32 noundef %4, i32 noundef %5, ptr noundef nonnull @.str.6) #4
  %7 = call noalias ptr @fopen(ptr noundef nonnull %2, ptr noundef nonnull @.str.3)
  %8 = icmp eq ptr %7, null
  br i1 %8, label %12, label %9

9:                                                ; preds = %1
  %10 = tail call i32 @fclose(ptr noundef nonnull %7)
  %11 = call i32 @remove(ptr noundef nonnull %2) #4
  %.not = icmp eq i32 %11, 0
  %. = select i1 %.not, i32 0, i32 -146
  br label %12

12:                                               ; preds = %9, %1
  %.0 = phi i32 [ -140, %1 ], [ %., %9 ]
  call void @llvm.lifetime.end.p0(i64 25, ptr nonnull %2) #4
  ret i32 %.0
}